; Function Attrs: nounwind uwtable
define hidden void @php_filter_validate_domain(ptr noundef %0, i64 noundef %1, ptr nocapture noundef readnone %2, ptr nocapture noundef readnone %3) local_unnamed_addr #0 {
  %5 = load ptr, ptr %0, align 8
  %6 = getelementptr inbounds i8, ptr %5, i64 24
  %7 = getelementptr inbounds i8, ptr %5, i64 16
  %8 = load i64, ptr %7, align 8
  %9 = tail call fastcc i32 @_php_filter_validate_domain(ptr noundef nonnull %6, i64 noundef %8, i64 noundef %1), !range !5
  %10 = icmp ne i32 %9, 0
  %11 = load ptr, ptr getelementptr inbounds (%struct._zend_executor_globals, ptr @executor_globals, i64 0, i32 50), align 8
  %12 = icmp ne ptr %11, null
  %or.cond = select i1 %10, i1 true, i1 %12
  br i1 %or.cond, label %15, label %.sink.split

.sink.split:                                      ; preds = %4
  %13 = and i64 %1, 134217728
  %.not = icmp eq i64 %13, 0
  tail call void @zval_ptr_dtor(ptr noundef nonnull %0) #14
  %14 = getelementptr inbounds i8, ptr %0, i64 8
  %. = select i1 %.not, i32 2, i32 1
  store i32 %., ptr %14, align 8
  br label %15

15:                                               ; preds = %.sink.split, %4
  ret void
}